; ModuleID = 'source-C-CXX/27/793.c'
source_filename = "source-C-CXX/27/793.c"
target datalayout = "e-m:e-p270:32:32-p271:32:32-p272:64:64-i64:64-f80:128-n8:16:32:64-S128"
target triple = "x86_64-pc-linux-gnu"

@.str = private unnamed_addr constant [4 x i8] c"%d,\00", align 1
@.str.1 = private unnamed_addr constant [3 x i8] c"%d\00", align 1

; Function Attrs: nounwind sspstrong uwtable
define dso_local void @main() local_unnamed_addr #0 {
  %1 = alloca [10000 x i8], align 16
  %2 = getelementptr inbounds [10000 x i8], [10000 x i8]* %1, i64 0, i64 0
  call void @llvm.lifetime.start.p0i8(i64 10000, i8* nonnull %2) #5
  %3 = call i32 (i8*, ...) bitcast (i32 (...)* @gets to i32 (i8*, ...)*)(i8* nonnull %2) #5
  %4 = call i64 @strlen(i8* noundef nonnull %2) #6
  %5 = trunc i64 %4 to i32
  %6 = icmp sgt i32 %5, 0
  br i1 %6, label %7, label %32

7:                                                ; preds = %0
  %8 = shl i64 %4, 32
  %9 = ashr exact i64 %8, 32
  br label %10

10:                                               ; preds = %25, %7
  %11 = phi i64 [ %29, %25 ], [ 0, %7 ]
  %12 = phi i32 [ %27, %25 ], [ 0, %7 ]
  %13 = getelementptr inbounds [10000 x i8], [10000 x i8]* %1, i64 0, i64 %11
  %14 = load i8, i8* %13, align 1, !tbaa !5
  switch i8 %14, label %15 [
    i8 32, label %17
    i8 0, label %17
  ]

15:                                               ; preds = %10
  %16 = add nsw i32 %12, 1
  br label %17

17:                                               ; preds = %10, %10, %15
  %18 = phi i32 [ %16, %15 ], [ %12, %10 ], [ %12, %10 ]
  %19 = icmp eq i8 %14, 32
  br i1 %19, label %20, label %25

20:                                               ; preds = %17
  %21 = icmp sgt i32 %18, 0
  br i1 %21, label %22, label %25

22:                                               ; preds = %20
  %23 = call i32 (i8*, ...) @printf(i8* nonnull dereferenceable(1) getelementptr inbounds ([4 x i8], [4 x i8]* @.str, i64 0, i64 0), i32 %18)
  %24 = load i8, i8* %13, align 1, !tbaa !5
  br label %25

25:                                               ; preds = %20, %22, %17
  %26 = phi i8 [ %14, %17 ], [ %24, %22 ], [ 32, %20 ]
  %27 = phi i32 [ %18, %17 ], [ 0, %22 ], [ 0, %20 ]
  %28 = icmp ne i8 %26, 0
  %29 = add nuw nsw i64 %11, 1
  %30 = icmp slt i64 %29, %9
  %31 = select i1 %28, i1 %30, i1 false
  br i1 %31, label %10, label %32, !llvm.loop !8

32:                                               ; preds = %25, %0
  %33 = phi i32 [ 0, %0 ], [ %27, %25 ]
  %34 = call i32 (i8*, ...) @printf(i8* nonnull dereferenceable(1) getelementptr inbounds ([3 x i8], [3 x i8]* @.str.1, i64 0, i64 0), i32 %33)
  call void @llvm.lifetime.end.p0i8(i64 10000, i8* nonnull %2) #5
  ret void
}

; Function Attrs: argmemonly mustprogress nofree nosync nounwind willreturn
declare void @llvm.lifetime.start.p0i8(i64 immarg, i8* nocapture) #1

declare i32 @gets(...) local_unnamed_addr #2

; Function Attrs: argmemonly mustprogress nofree nounwind readonly willreturn
declare i64 @strlen(i8* nocapture) local_unnamed_addr #3

; Function Attrs: nofree nounwind
declare noundef i32 @printf(i8* nocapture noundef readonly, ...) local_unnamed_addr #4

; Function Attrs: argmemonly mustprogress nofree nosync nounwind willreturn
declare void @llvm.lifetime.end.p0i8(i64 immarg, i8* nocapture) #1


!llvm.module.flags = !{!0, !1, !2, !3}
!llvm.ident = !{!4}

!0 = !{i32 1, !"wchar_size", i32 4}
!1 = !{i32 7, !"PIC Level", i32 2}
!2 = !{i32 7, !"PIE Level", i32 2}
!3 = !{i32 7, !"uwtable", i32 1}
!4 = !{!"clang version 13.0.0"}
!5 = !{!6, !6, i64 0}
!6 = !{!"omnipotent char", !7, i64 0}
!7 = !{!"Simple C/C++ TBAA"}
!8 = distinct !{!8, !9}
!9 = !{!"llvm.loop.mustprogress"}
